
lab7.elf:     file format elf32-avr

Sections:
Idx Name          Size      VMA       LMA       File off  Algn
  0 .text         000000e6  00000000  00000000  00000094  2**1
                  CONTENTS, ALLOC, LOAD, READONLY, CODE
  1 .data         00000008  00800060  000000e6  0000017a  2**0
                  CONTENTS, ALLOC, LOAD, DATA
  2 .bss          00000002  00800068  00800068  00000182  2**0
                  ALLOC
  3 .debug_aranges 00000060  00000000  00000000  00000182  2**0
                  CONTENTS, READONLY, DEBUGGING
  4 .debug_pubnames 00000097  00000000  00000000  000001e2  2**0
                  CONTENTS, READONLY, DEBUGGING
  5 .debug_info   000001d8  00000000  00000000  00000279  2**0
                  CONTENTS, READONLY, DEBUGGING
  6 .debug_abbrev 00000100  00000000  00000000  00000451  2**0
                  CONTENTS, READONLY, DEBUGGING
  7 .debug_line   00000196  00000000  00000000  00000551  2**0
                  CONTENTS, READONLY, DEBUGGING
  8 .debug_frame  00000070  00000000  00000000  000006e8  2**2
                  CONTENTS, READONLY, DEBUGGING
  9 .debug_str    000000e5  00000000  00000000  00000758  2**0
                  CONTENTS, READONLY, DEBUGGING

Disassembly of section .text:

00000000 <__vectors>:
   0:	10 c0       	rjmp	.+32     	; 0x22 <__ctors_end>
   2:	2a c0       	rjmp	.+84     	; 0x58 <__bad_interrupt>
   4:	29 c0       	rjmp	.+82     	; 0x58 <__bad_interrupt>
   6:	28 c0       	rjmp	.+80     	; 0x58 <__bad_interrupt>
   8:	27 c0       	rjmp	.+78     	; 0x58 <__bad_interrupt>
   a:	26 c0       	rjmp	.+76     	; 0x58 <__bad_interrupt>
   c:	25 c0       	rjmp	.+74     	; 0x58 <__bad_interrupt>
   e:	24 c0       	rjmp	.+72     	; 0x58 <__bad_interrupt>
  10:	23 c0       	rjmp	.+70     	; 0x58 <__bad_interrupt>
  12:	22 c0       	rjmp	.+68     	; 0x58 <__bad_interrupt>
  14:	21 c0       	rjmp	.+66     	; 0x58 <__bad_interrupt>
  16:	20 c0       	rjmp	.+64     	; 0x58 <__bad_interrupt>
  18:	1f c0       	rjmp	.+62     	; 0x58 <__bad_interrupt>
  1a:	1e c0       	rjmp	.+60     	; 0x58 <__bad_interrupt>
  1c:	1d c0       	rjmp	.+58     	; 0x58 <__bad_interrupt>
  1e:	1c c0       	rjmp	.+56     	; 0x58 <__bad_interrupt>
  20:	1b c0       	rjmp	.+54     	; 0x58 <__bad_interrupt>

00000022 <__ctors_end>:
  22:	11 24       	eor	r1, r1
  24:	1f be       	out	0x3f, r1	; 63
  26:	cf e5       	ldi	r28, 0x5F	; 95
  28:	d2 e0       	ldi	r29, 0x02	; 2
  2a:	de bf       	out	0x3e, r29	; 62
  2c:	cd bf       	out	0x3d, r28	; 61

0000002e <__do_copy_data>:
  2e:	10 e0       	ldi	r17, 0x00	; 0
  30:	a0 e6       	ldi	r26, 0x60	; 96
  32:	b0 e0       	ldi	r27, 0x00	; 0
  34:	e6 ee       	ldi	r30, 0xE6	; 230
  36:	f0 e0       	ldi	r31, 0x00	; 0
  38:	02 c0       	rjmp	.+4      	; 0x3e <.do_copy_data_start>

0000003a <.do_copy_data_loop>:
  3a:	05 90       	lpm	r0, Z+
  3c:	0d 92       	st	X+, r0

0000003e <.do_copy_data_start>:
  3e:	a8 36       	cpi	r26, 0x68	; 104
  40:	b1 07       	cpc	r27, r17
  42:	d9 f7       	brne	.-10     	; 0x3a <.do_copy_data_loop>

00000044 <__do_clear_bss>:
  44:	10 e0       	ldi	r17, 0x00	; 0
  46:	a8 e6       	ldi	r26, 0x68	; 104
  48:	b0 e0       	ldi	r27, 0x00	; 0
  4a:	01 c0       	rjmp	.+2      	; 0x4e <.do_clear_bss_start>

0000004c <.do_clear_bss_loop>:
  4c:	1d 92       	st	X+, r1

0000004e <.do_clear_bss_start>:
  4e:	aa 36       	cpi	r26, 0x6A	; 106
  50:	b1 07       	cpc	r27, r17
  52:	e1 f7       	brne	.-8      	; 0x4c <.do_clear_bss_loop>
  54:	06 d0       	rcall	.+12     	; 0x62 <main>
  56:	45 c0       	rjmp	.+138    	; 0xe2 <_exit>

00000058 <__bad_interrupt>:
  58:	d3 cf       	rjmp	.-90     	; 0x0 <__vectors>

0000005a <test>:
#include <avr/io.h>
#include "test1.h"
#include "keyboard.h"

int test(void){
	DDRB=0x00; // PB7,PB6 ??? ?????? ?? LED7,LED6 PB0- ??? ?????
  5a:	17 ba       	out	0x17, r1	; 23
	PORTB=0b10010101; // ????????? LED7, PB0-????????????? ???????? ??????
  5c:	85 e9       	ldi	r24, 0x95	; 149
  5e:	88 bb       	out	0x18, r24	; 24
}
  60:	08 95       	ret

00000062 <main>:

int main(void){
	//test();
	//test1_func();
	DDRA=0xF0;
  62:	80 ef       	ldi	r24, 0xF0	; 240
  64:	8a bb       	out	0x1a, r24	; 26
	PORTA=0x0F;
  66:	8f e0       	ldi	r24, 0x0F	; 15
  68:	8b bb       	out	0x1b, r24	; 27
	DDRB=0xFF;
  6a:	8f ef       	ldi	r24, 0xFF	; 255
  6c:	87 bb       	out	0x17, r24	; 23
	while(1) {
		PORTB=keyboard_get_state();
  6e:	08 d0       	rcall	.+16     	; 0x80 <keyboard_get_state>
  70:	88 bb       	out	0x18, r24	; 24
 		//asm("sleep"); // ??????? ? ????? Idle
 		asm("nop");
  72:	00 00       	nop
  74:	fc cf       	rjmp	.-8      	; 0x6e <main+0xc>

00000076 <test1_func>:
#include <avr/io.h>

int test1_func(void){
	DDRA=0xFF; // PB7,PB6 ??? ?????? ?? LED7,LED6 PB0- ??? ?????
  76:	8f ef       	ldi	r24, 0xFF	; 255
  78:	8a bb       	out	0x1a, r24	; 26
	PORTA=0b10010100; // ????????? LED7, PB0-????????????? ???????? ??????
  7a:	84 e9       	ldi	r24, 0x94	; 148
  7c:	8b bb       	out	0x1b, r24	; 27
}
  7e:	08 95       	ret

00000080 <keyboard_get_state>:
	returns (line<<4 | coluumn) 
	values in [0;3]
	no idea why they swap
*/
char keyboard_get_state(void){
 	for(i=0; i<4; i++)
  80:	10 92 68 00 	sts	0x0068, r1
  84:	40 91 69 00 	lds	r20, 0x0069
  88:	50 e0       	ldi	r21, 0x00	; 0
  8a:	23 c0       	rjmp	.+70     	; 0xd2 <keyboard_get_state+0x52>
    { 
       PORTA=portState[i];
  8c:	e5 2f       	mov	r30, r21
  8e:	f0 e0       	ldi	r31, 0x00	; 0
  90:	e0 5a       	subi	r30, 0xA0	; 160
  92:	ff 4f       	sbci	r31, 0xFF	; 255
  94:	80 81       	ld	r24, Z
  96:	8b bb       	out	0x1b, r24	; 27
  98:	40 e0       	ldi	r20, 0x00	; 0
  9a:	18 c0       	rjmp	.+48     	; 0xcc <keyboard_get_state+0x4c>
       for(j=0; j<4; j++)
       { 
          if(((PINA&inputState[j])==0))
  9c:	89 b3       	in	r24, 0x19	; 25
  9e:	24 2f       	mov	r18, r20
  a0:	30 e0       	ldi	r19, 0x00	; 0
  a2:	64 2f       	mov	r22, r20
  a4:	6f 5f       	subi	r22, 0xFF	; 255
  a6:	f9 01       	movw	r30, r18
  a8:	ec 59       	subi	r30, 0x9C	; 156
  aa:	ff 4f       	sbci	r31, 0xFF	; 255
  ac:	90 81       	ld	r25, Z
  ae:	89 23       	and	r24, r25
  b0:	61 f4       	brne	.+24     	; 0xca <keyboard_get_state+0x4a>
  b2:	40 93 69 00 	sts	0x0069, r20
  b6:	50 93 68 00 	sts	0x0068, r21
          {
		  	return (j<<4) | i;
  ba:	84 e0       	ldi	r24, 0x04	; 4
  bc:	22 0f       	add	r18, r18
  be:	33 1f       	adc	r19, r19
  c0:	8a 95       	dec	r24
  c2:	e1 f7       	brne	.-8      	; 0xbc <keyboard_get_state+0x3c>
  c4:	85 2f       	mov	r24, r21
  c6:	82 2b       	or	r24, r18
  c8:	08 95       	ret
  ca:	46 2f       	mov	r20, r22
*/
char keyboard_get_state(void){
 	for(i=0; i<4; i++)
    { 
       PORTA=portState[i];
       for(j=0; j<4; j++)
  cc:	44 30       	cpi	r20, 0x04	; 4
  ce:	31 f7       	brne	.-52     	; 0x9c <keyboard_get_state+0x1c>
  d0:	5f 5f       	subi	r21, 0xFF	; 255
	returns (line<<4 | coluumn) 
	values in [0;3]
	no idea why they swap
*/
char keyboard_get_state(void){
 	for(i=0; i<4; i++)
  d2:	54 30       	cpi	r21, 0x04	; 4
  d4:	d8 f2       	brcs	.-74     	; 0x8c <keyboard_get_state+0xc>
  d6:	40 93 69 00 	sts	0x0069, r20
  da:	50 93 68 00 	sts	0x0068, r21
  de:	8f ef       	ldi	r24, 0xFF	; 255
		  	return (j<<4) | i;
          }
       }                          
    }
	return 0xFF;  
}
  e0:	08 95       	ret

000000e2 <_exit>:
  e2:	f8 94       	cli

000000e4 <__stop_program>:
  e4:	ff cf       	rjmp	.-2      	; 0xe4 <__stop_program>
