
lab7.elf:     file format elf32-avr

Sections:
Idx Name          Size      VMA       LMA       File off  Algn
  0 .text         0000010c  00000000  00000000  00000094  2**1
                  CONTENTS, ALLOC, LOAD, READONLY, CODE
  1 .data         00000008  00800060  0000010c  000001a0  2**0
                  CONTENTS, ALLOC, LOAD, DATA
  2 .bss          00000002  00800068  00800068  000001a8  2**0
                  ALLOC
  3 .debug_aranges 00000080  00000000  00000000  000001a8  2**0
                  CONTENTS, READONLY, DEBUGGING
  4 .debug_pubnames 000000ca  00000000  00000000  00000228  2**0
                  CONTENTS, READONLY, DEBUGGING
  5 .debug_info   00000275  00000000  00000000  000002f2  2**0
                  CONTENTS, READONLY, DEBUGGING
  6 .debug_abbrev 00000165  00000000  00000000  00000567  2**0
                  CONTENTS, READONLY, DEBUGGING
  7 .debug_line   00000259  00000000  00000000  000006cc  2**0
                  CONTENTS, READONLY, DEBUGGING
  8 .debug_frame  000000a0  00000000  00000000  00000928  2**2
                  CONTENTS, READONLY, DEBUGGING
  9 .debug_str    00000108  00000000  00000000  000009c8  2**0
                  CONTENTS, READONLY, DEBUGGING

Disassembly of section .text:

00000000 <__vectors>:
   0:	10 c0       	rjmp	.+32     	; 0x22 <__ctors_end>
   2:	2a c0       	rjmp	.+84     	; 0x58 <__bad_interrupt>
   4:	29 c0       	rjmp	.+82     	; 0x58 <__bad_interrupt>
   6:	28 c0       	rjmp	.+80     	; 0x58 <__bad_interrupt>
   8:	27 c0       	rjmp	.+78     	; 0x58 <__bad_interrupt>
   a:	26 c0       	rjmp	.+76     	; 0x58 <__bad_interrupt>
   c:	25 c0       	rjmp	.+74     	; 0x58 <__bad_interrupt>
   e:	24 c0       	rjmp	.+72     	; 0x58 <__bad_interrupt>
  10:	23 c0       	rjmp	.+70     	; 0x58 <__bad_interrupt>
  12:	22 c0       	rjmp	.+68     	; 0x58 <__bad_interrupt>
  14:	21 c0       	rjmp	.+66     	; 0x58 <__bad_interrupt>
  16:	20 c0       	rjmp	.+64     	; 0x58 <__bad_interrupt>
  18:	1f c0       	rjmp	.+62     	; 0x58 <__bad_interrupt>
  1a:	1e c0       	rjmp	.+60     	; 0x58 <__bad_interrupt>
  1c:	1d c0       	rjmp	.+58     	; 0x58 <__bad_interrupt>
  1e:	1c c0       	rjmp	.+56     	; 0x58 <__bad_interrupt>
  20:	1b c0       	rjmp	.+54     	; 0x58 <__bad_interrupt>

00000022 <__ctors_end>:
  22:	11 24       	eor	r1, r1
  24:	1f be       	out	0x3f, r1	; 63
  26:	cf e5       	ldi	r28, 0x5F	; 95
  28:	d2 e0       	ldi	r29, 0x02	; 2
  2a:	de bf       	out	0x3e, r29	; 62
  2c:	cd bf       	out	0x3d, r28	; 61

0000002e <__do_copy_data>:
  2e:	10 e0       	ldi	r17, 0x00	; 0
  30:	a0 e6       	ldi	r26, 0x60	; 96
  32:	b0 e0       	ldi	r27, 0x00	; 0
  34:	ec e0       	ldi	r30, 0x0C	; 12
  36:	f1 e0       	ldi	r31, 0x01	; 1
  38:	02 c0       	rjmp	.+4      	; 0x3e <.do_copy_data_start>

0000003a <.do_copy_data_loop>:
  3a:	05 90       	lpm	r0, Z+
  3c:	0d 92       	st	X+, r0

0000003e <.do_copy_data_start>:
  3e:	a8 36       	cpi	r26, 0x68	; 104
  40:	b1 07       	cpc	r27, r17
  42:	d9 f7       	brne	.-10     	; 0x3a <.do_copy_data_loop>

00000044 <__do_clear_bss>:
  44:	10 e0       	ldi	r17, 0x00	; 0
  46:	a8 e6       	ldi	r26, 0x68	; 104
  48:	b0 e0       	ldi	r27, 0x00	; 0
  4a:	01 c0       	rjmp	.+2      	; 0x4e <.do_clear_bss_start>

0000004c <.do_clear_bss_loop>:
  4c:	1d 92       	st	X+, r1

0000004e <.do_clear_bss_start>:
  4e:	aa 36       	cpi	r26, 0x6A	; 106
  50:	b1 07       	cpc	r27, r17
  52:	e1 f7       	brne	.-8      	; 0x4c <.do_clear_bss_loop>
  54:	06 d0       	rcall	.+12     	; 0x62 <main>
  56:	58 c0       	rjmp	.+176    	; 0x108 <_exit>

00000058 <__bad_interrupt>:
  58:	d3 cf       	rjmp	.-90     	; 0x0 <__vectors>

0000005a <test>:
#include "test1.h"
#include "keyboard.h"
#include "uart.h"

int test(void){
	DDRB=0x00; // PB7,PB6 ??? ?????? ?? LED7,LED6 PB0- ??? ?????
  5a:	17 ba       	out	0x17, r1	; 23
	PORTB=0b10010101; // ????????? LED7, PB0-????????????? ???????? ??????
  5c:	85 e9       	ldi	r24, 0x95	; 149
  5e:	88 bb       	out	0x18, r24	; 24
}
  60:	08 95       	ret

00000062 <main>:

int main(void){
	//test();
	//test1_func();
	DDRA=0xF0;
  62:	80 ef       	ldi	r24, 0xF0	; 240
  64:	8a bb       	out	0x1a, r24	; 26
	PORTA=0x0F;
  66:	8f e0       	ldi	r24, 0x0F	; 15
  68:	8b bb       	out	0x1b, r24	; 27
	DDRC=0x00;
  6a:	14 ba       	out	0x14, r1	; 20
	PORTC=0b10011001;
  6c:	89 e9       	ldi	r24, 0x99	; 153
  6e:	85 bb       	out	0x15, r24	; 21
	uart_init();
  70:	3e d0       	rcall	.+124    	; 0xee <uart_init>
	uart_send_byte('h');
  72:	88 e6       	ldi	r24, 0x68	; 104
  74:	45 d0       	rcall	.+138    	; 0x100 <uart_send_byte>
	uart_send_byte('3');
  76:	83 e3       	ldi	r24, 0x33	; 51
  78:	43 d0       	rcall	.+134    	; 0x100 <uart_send_byte>

	while(1) {
		//uart_send_byte1('e');
		PORTB=keyboard_get_state();
  7a:	08 d0       	rcall	.+16     	; 0x8c <keyboard_get_state>
  7c:	88 bb       	out	0x18, r24	; 24
 		//asm("sleep"); // ??????? ? ????? Idle
 		asm("nop");
  7e:	00 00       	nop
  80:	fc cf       	rjmp	.-8      	; 0x7a <main+0x18>

00000082 <test1_func>:
#include <avr/io.h>

int test1_func(void){
	DDRA=0xFF; // PB7,PB6 ??? ?????? ?? LED7,LED6 PB0- ??? ?????
  82:	8f ef       	ldi	r24, 0xFF	; 255
  84:	8a bb       	out	0x1a, r24	; 26
	PORTA=0b10010100; // ????????? LED7, PB0-????????????? ???????? ??????
  86:	84 e9       	ldi	r24, 0x94	; 148
  88:	8b bb       	out	0x1b, r24	; 27
}
  8a:	08 95       	ret

0000008c <keyboard_get_state>:
	returns (line<<4 | coluumn) 
	values in [0;3]
	no idea why they swap
*/
char keyboard_get_state(void){
 	for(i=0; i<4; i++)
  8c:	10 92 68 00 	sts	0x0068, r1
  90:	40 91 69 00 	lds	r20, 0x0069
  94:	50 e0       	ldi	r21, 0x00	; 0
  96:	23 c0       	rjmp	.+70     	; 0xde <keyboard_get_state+0x52>
    { 
       PORTA=portState[i];
  98:	e5 2f       	mov	r30, r21
  9a:	f0 e0       	ldi	r31, 0x00	; 0
  9c:	e0 5a       	subi	r30, 0xA0	; 160
  9e:	ff 4f       	sbci	r31, 0xFF	; 255
  a0:	80 81       	ld	r24, Z
  a2:	8b bb       	out	0x1b, r24	; 27
  a4:	40 e0       	ldi	r20, 0x00	; 0
  a6:	18 c0       	rjmp	.+48     	; 0xd8 <keyboard_get_state+0x4c>
       for(j=0; j<4; j++)
       { 
          if(((PINA&inputState[j])==0))
  a8:	89 b3       	in	r24, 0x19	; 25
  aa:	24 2f       	mov	r18, r20
  ac:	30 e0       	ldi	r19, 0x00	; 0
  ae:	64 2f       	mov	r22, r20
  b0:	6f 5f       	subi	r22, 0xFF	; 255
  b2:	f9 01       	movw	r30, r18
  b4:	ec 59       	subi	r30, 0x9C	; 156
  b6:	ff 4f       	sbci	r31, 0xFF	; 255
  b8:	90 81       	ld	r25, Z
  ba:	89 23       	and	r24, r25
  bc:	61 f4       	brne	.+24     	; 0xd6 <keyboard_get_state+0x4a>
  be:	40 93 69 00 	sts	0x0069, r20
  c2:	50 93 68 00 	sts	0x0068, r21
          {
		  	return (j<<4) | i;
  c6:	84 e0       	ldi	r24, 0x04	; 4
  c8:	22 0f       	add	r18, r18
  ca:	33 1f       	adc	r19, r19
  cc:	8a 95       	dec	r24
  ce:	e1 f7       	brne	.-8      	; 0xc8 <keyboard_get_state+0x3c>
  d0:	85 2f       	mov	r24, r21
  d2:	82 2b       	or	r24, r18
  d4:	08 95       	ret
  d6:	46 2f       	mov	r20, r22
*/
char keyboard_get_state(void){
 	for(i=0; i<4; i++)
    { 
       PORTA=portState[i];
       for(j=0; j<4; j++)
  d8:	44 30       	cpi	r20, 0x04	; 4
  da:	31 f7       	brne	.-52     	; 0xa8 <keyboard_get_state+0x1c>
  dc:	5f 5f       	subi	r21, 0xFF	; 255
	returns (line<<4 | coluumn) 
	values in [0;3]
	no idea why they swap
*/
char keyboard_get_state(void){
 	for(i=0; i<4; i++)
  de:	54 30       	cpi	r21, 0x04	; 4
  e0:	d8 f2       	brcs	.-74     	; 0x98 <keyboard_get_state+0xc>
  e2:	40 93 69 00 	sts	0x0069, r20
  e6:	50 93 68 00 	sts	0x0068, r21
  ea:	8f ef       	ldi	r24, 0xFF	; 255
		  	return (j<<4) | i;
          }
       }                          
    }
	return 0xFF;  
}
  ec:	08 95       	ret

000000ee <uart_init>:
#define F_CPU 4000000UL
#define BAUD 9600
#include <util/setbaud.h>

void uart_init(void) {
    UBRRH = UBRRH_VALUE;
  ee:	10 bc       	out	0x20, r1	; 32
    UBRRL = UBRRL_VALUE;
  f0:	89 e1       	ldi	r24, 0x19	; 25
  f2:	89 b9       	out	0x09, r24	; 9

#if USE_2X
    UCSRA |= _BV(U2X);
#else
    UCSRA &= ~(_BV(U2X));
  f4:	59 98       	cbi	0x0b, 1	; 11
#endif

    UCSRC = _BV(UCSZ1) | _BV(UCSZ0); /* 8-bit data */
  f6:	86 e0       	ldi	r24, 0x06	; 6
  f8:	80 bd       	out	0x20, r24	; 32
    UCSRB = _BV(RXEN) | _BV(TXEN);   /* Enable RX and TX */
  fa:	88 e1       	ldi	r24, 0x18	; 24
  fc:	8a b9       	out	0x0a, r24	; 10
}
  fe:	08 95       	ret

00000100 <uart_send_byte>:

void uart_send_byte(char c) {
   loop_until_bit_is_set(UCSRA, UDRE); /* Wait until data register empty. */
 100:	5d 9b       	sbis	0x0b, 5	; 11
 102:	fe cf       	rjmp	.-4      	; 0x100 <uart_send_byte>
   UDR = c;
 104:	8c b9       	out	0x0c, r24	; 12
}
 106:	08 95       	ret

00000108 <_exit>:
 108:	f8 94       	cli

0000010a <__stop_program>:
 10a:	ff cf       	rjmp	.-2      	; 0x10a <__stop_program>
